target datalayout = "e-m:e-p270:32:32-p271:32:32-p272:64:64-i64:64-i128:128-f80:128-n8:16:32:64-S128"
target triple = "x86_64-pc-linux-gnu"

; Function Attrs: mustprogress nounwind uwtable
define internal noundef i32 @_ZL13RarErrorToDll8RAR_EXIT(i32 noundef %0) #5 {
  %2 = alloca i32, align 4
  %3 = alloca i32, align 4
  store i32 %0, ptr %3, align 4
  %4 = load i32, ptr %3, align 4
  switch i32 %4, label %13 [
    i32 2, label %5
    i32 12, label %5
    i32 3, label %6
    i32 5, label %7
    i32 6, label %8
    i32 9, label %9
    i32 8, label %10
    i32 11, label %11
    i32 0, label %12
  ]

5:                                                ; preds = %1, %1
  store i32 18, ptr %2, align 4
  br label %14

6:                                                ; preds = %1
  store i32 12, ptr %2, align 4
  br label %14

7:                                                ; preds = %1
  store i32 19, ptr %2, align 4
  br label %14

8:                                                ; preds = %1
  store i32 15, ptr %2, align 4
  br label %14

9:                                                ; preds = %1
  store i32 16, ptr %2, align 4
  br label %14

10:                                               ; preds = %1
  store i32 11, ptr %2, align 4
  br label %14

11:                                               ; preds = %1
  store i32 24, ptr %2, align 4
  br label %14

12:                                               ; preds = %1
  store i32 0, ptr %2, align 4
  br label %14

13:                                               ; preds = %1
  store i32 21, ptr %2, align 4
  br label %14

14:                                               ; preds = %13, %12, %11, %10, %9, %8, %7, %6, %5
  %15 = load i32, ptr %2, align 4
  ret i32 %15
}